ARM GAS  /tmp/cccTIW9E.s 			page 1


   1              		.cpu cortex-m4
   2              		.eabi_attribute 27, 1
   3              		.eabi_attribute 28, 1
   4              		.eabi_attribute 20, 1
   5              		.eabi_attribute 21, 1
   6              		.eabi_attribute 23, 3
   7              		.eabi_attribute 24, 1
   8              		.eabi_attribute 25, 1
   9              		.eabi_attribute 26, 1
  10              		.eabi_attribute 30, 2
  11              		.eabi_attribute 34, 1
  12              		.eabi_attribute 18, 4
  13              		.file	"main.c"
  14              		.text
  15              	.Ltext0:
  16              		.cfi_sections	.debug_frame
  17              		.section	.text.startup.main,"ax",%progbits
  18              		.align	1
  19              		.p2align 4,,15
  20              		.global	main
  21              		.syntax unified
  22              		.thumb
  23              		.thumb_func
  24              		.fpu fpv4-sp-d16
  25              		.type	main, %function
  26              	main:
  27              	.LFB259:
  28              		.file 1 "main.c"
  29              		.loc 1 23 0
  30              		.cfi_startproc
  31              		@ args = 0, pretend = 0, frame = 8
  32              		@ frame_needed = 0, uses_anonymous_args = 0
  33 0000 70B5     		push	{r4, r5, r6, lr}
  34              		.cfi_def_cfa_offset 16
  35              		.cfi_offset 4, -16
  36              		.cfi_offset 5, -12
  37              		.cfi_offset 6, -8
  38              		.cfi_offset 14, -4
  39 0002 454B     		ldr	r3, .L15
  40              	.LBB2:
  41              		.loc 1 74 0
  42 0004 454E     		ldr	r6, .L15+4
  43              	.LBE2:
  44              		.loc 1 23 0
  45 0006 1B68     		ldr	r3, [r3]
  46 0008 82B0     		sub	sp, sp, #8
  47              		.cfi_def_cfa_offset 24
  48              		.loc 1 23 0
  49 000a 0193     		str	r3, [sp, #4]
  50              		.loc 1 25 0
  51 000c FFF7FEFF 		bl	halInit
  52              	.LVL0:
  53              		.loc 1 26 0
  54 0010 FFF7FEFF 		bl	chSysInit
  55              	.LVL1:
  56              		.loc 1 27 0
  57 0014 FFF7FEFF 		bl	mpu_init
ARM GAS  /tmp/cccTIW9E.s 			page 2


  58              	.LVL2:
  59              		.loc 1 30 0
  60 0018 414A     		ldr	r2, .L15+8
  61 001a 4249     		ldr	r1, .L15+12
  62 001c 4248     		ldr	r0, .L15+16
  63 001e FFF7FEFF 		bl	messagebus_init
  64              	.LVL3:
  65              		.loc 1 31 0
  66 0022 0020     		movs	r0, #0
  67 0024 FFF7FEFF 		bl	proximity_start
  68              	.LVL4:
  69              		.loc 1 32 0
  70 0028 FFF7FEFF 		bl	calibrate_ir
  71              	.LVL5:
  72              		.loc 1 35 0
  73 002c FFF7FEFF 		bl	clear_leds
  74              	.LVL6:
  75              		.loc 1 36 0
  76 0030 FFF7FEFF 		bl	spi_comm_start
  77              	.LVL7:
  78              		.loc 1 39 0
  79 0034 FFF7FEFF 		bl	motors_init
  80              	.LVL8:
  81              		.loc 1 42 0
  82 0038 FFF7FEFF 		bl	serial_start
  83              	.LVL9:
  84              		.loc 1 45 0
  85 003c 0121     		movs	r1, #1
  86 003e 0020     		movs	r0, #0
  87 0040 FFF7FEFF 		bl	set_led
  88              	.LVL10:
  89              		.loc 1 46 0
  90 0044 0021     		movs	r1, #0
  91 0046 0120     		movs	r0, #1
  92 0048 FFF7FEFF 		bl	set_led
  93              	.LVL11:
  94              		.loc 1 47 0
  95 004c 0121     		movs	r1, #1
  96 004e 0220     		movs	r0, #2
  97 0050 FFF7FEFF 		bl	set_led
  98              	.LVL12:
  99              		.loc 1 48 0
 100 0054 0021     		movs	r1, #0
 101 0056 0320     		movs	r0, #3
 102 0058 FFF7FEFF 		bl	set_led
 103              	.LVL13:
 104              		.loc 1 49 0
 105 005c 0020     		movs	r0, #0
 106 005e FFF7FEFF 		bl	set_body_led
 107              	.LVL14:
 108 0062 09E0     		b	.L8
 109              	.LVL15:
 110              	.L3:
 111              	.LBB3:
 112              		.loc 1 69 0
 113 0064 4FF4FA70 		mov	r0, #500
 114              	.LVL16:
ARM GAS  /tmp/cccTIW9E.s 			page 3


 115 0068 FFF7FEFF 		bl	left_motor_set_speed
 116              	.LVL17:
 117              		.loc 1 70 0
 118 006c 3046     		mov	r0, r6
 119 006e FFF7FEFF 		bl	right_motor_set_speed
 120              	.LVL18:
 121              	.L7:
 122              	.LBE3:
 123              		.loc 1 83 0
 124 0072 3220     		movs	r0, #50
 125 0074 FFF7FEFF 		bl	chThdSleep
 126              	.LVL19:
 127              	.L8:
 128              		.loc 1 63 0
 129 0078 0020     		movs	r0, #0
 130 007a FFF7FEFF 		bl	get_calibrated_prox
 131              	.LVL20:
 132 007e B0F52F7F 		cmp	r0, #700
 133 0082 05DC     		bgt	.L5
 134              		.loc 1 63 0 is_stmt 0 discriminator 1
 135 0084 0120     		movs	r0, #1
 136 0086 FFF7FEFF 		bl	get_calibrated_prox
 137              	.LVL21:
 138 008a B0F52F7F 		cmp	r0, #700
 139 008e 21DD     		ble	.L14
 140              	.L5:
 141              	.LBB4:
 142              		.loc 1 65 0 is_stmt 1
 143 0090 0620     		movs	r0, #6
 144 0092 FFF7FEFF 		bl	get_calibrated_prox
 145              	.LVL22:
 146 0096 0546     		mov	r5, r0
 147 0098 0720     		movs	r0, #7
 148 009a FFF7FEFF 		bl	get_calibrated_prox
 149              	.LVL23:
 150 009e 0544     		add	r5, r5, r0
 151 00a0 0520     		movs	r0, #5
 152 00a2 FFF7FEFF 		bl	get_calibrated_prox
 153              	.LVL24:
 154 00a6 0544     		add	r5, r5, r0
 155              	.LVL25:
 156              		.loc 1 66 0
 157 00a8 0020     		movs	r0, #0
 158 00aa FFF7FEFF 		bl	get_calibrated_prox
 159              	.LVL26:
 160 00ae 0446     		mov	r4, r0
 161 00b0 0120     		movs	r0, #1
 162 00b2 FFF7FEFF 		bl	get_calibrated_prox
 163              	.LVL27:
 164 00b6 0444     		add	r4, r4, r0
 165 00b8 0220     		movs	r0, #2
 166 00ba FFF7FEFF 		bl	get_calibrated_prox
 167              	.LVL28:
 168 00be 2044     		add	r0, r0, r4
 169              	.LVL29:
 170              		.loc 1 67 0
 171 00c0 8542     		cmp	r5, r0
ARM GAS  /tmp/cccTIW9E.s 			page 4


 172 00c2 CFDC     		bgt	.L3
 173              		.loc 1 74 0
 174 00c4 3046     		mov	r0, r6
 175              	.LVL30:
 176 00c6 FFF7FEFF 		bl	left_motor_set_speed
 177              	.LVL31:
 178              		.loc 1 75 0
 179 00ca 4FF4FA70 		mov	r0, #500
 180 00ce FFF7FEFF 		bl	right_motor_set_speed
 181              	.LVL32:
 182 00d2 CEE7     		b	.L7
 183              	.LVL33:
 184              	.L14:
 185              	.LBE4:
 186              		.loc 1 63 0 discriminator 2
 187 00d4 0220     		movs	r0, #2
 188 00d6 FFF7FEFF 		bl	get_calibrated_prox
 189              	.LVL34:
 190 00da B0F52F7F 		cmp	r0, #700
 191 00de D7DC     		bgt	.L5
 192              		.loc 1 63 0 is_stmt 0 discriminator 3
 193 00e0 0520     		movs	r0, #5
 194 00e2 FFF7FEFF 		bl	get_calibrated_prox
 195              	.LVL35:
 196 00e6 B0F52F7F 		cmp	r0, #700
 197 00ea D1DC     		bgt	.L5
 198              		.loc 1 63 0 discriminator 4
 199 00ec 0620     		movs	r0, #6
 200 00ee FFF7FEFF 		bl	get_calibrated_prox
 201              	.LVL36:
 202 00f2 B0F52F7F 		cmp	r0, #700
 203 00f6 CBDC     		bgt	.L5
 204              		.loc 1 63 0 discriminator 5
 205 00f8 0720     		movs	r0, #7
 206 00fa FFF7FEFF 		bl	get_calibrated_prox
 207              	.LVL37:
 208 00fe B0F52F7F 		cmp	r0, #700
 209 0102 C5DC     		bgt	.L5
 210              		.loc 1 80 0 is_stmt 1
 211 0104 4FF4FA70 		mov	r0, #500
 212 0108 FFF7FEFF 		bl	left_motor_set_speed
 213              	.LVL38:
 214              		.loc 1 81 0
 215 010c 4FF4FA70 		mov	r0, #500
 216 0110 FFF7FEFF 		bl	right_motor_set_speed
 217              	.LVL39:
 218 0114 ADE7     		b	.L7
 219              	.L16:
 220 0116 00BF     		.align	2
 221              	.L15:
 222 0118 00000000 		.word	__stack_chk_guard
 223 011c 0CFEFFFF 		.word	-500
 224 0120 00000000 		.word	.LANCHOR0
 225 0124 00000000 		.word	.LANCHOR1
 226 0128 00000000 		.word	.LANCHOR2
 227              		.cfi_endproc
 228              	.LFE259:
ARM GAS  /tmp/cccTIW9E.s 			page 5


 229              		.size	main, .-main
 230              		.section	.text.__stack_chk_fail,"ax",%progbits
 231              		.align	1
 232              		.p2align 4,,15
 233              		.global	__stack_chk_fail
 234              		.syntax unified
 235              		.thumb
 236              		.thumb_func
 237              		.fpu fpv4-sp-d16
 238              		.type	__stack_chk_fail, %function
 239              	__stack_chk_fail:
 240              	.LFB260:
 241              		.loc 1 129 0
 242              		.cfi_startproc
 243              		@ args = 0, pretend = 0, frame = 8
 244              		@ frame_needed = 0, uses_anonymous_args = 0
 245 0000 00B5     		push	{lr}
 246              		.cfi_def_cfa_offset 4
 247              		.cfi_offset 14, -4
 248 0002 084B     		ldr	r3, .L22
 249 0004 83B0     		sub	sp, sp, #12
 250              		.cfi_def_cfa_offset 16
 251              		.loc 1 129 0
 252 0006 1A68     		ldr	r2, [r3]
 253 0008 0192     		str	r2, [sp, #4]
 254              		.loc 1 130 0
 255 000a 019A     		ldr	r2, [sp, #4]
 256 000c 1B68     		ldr	r3, [r3]
 257 000e 9A42     		cmp	r2, r3
 258 0010 05D1     		bne	.L21
 259 0012 0548     		ldr	r0, .L22+4
 260              		.loc 1 131 0
 261 0014 03B0     		add	sp, sp, #12
 262              		.cfi_remember_state
 263              		.cfi_def_cfa_offset 4
 264              		@ sp needed
 265 0016 5DF804EB 		ldr	lr, [sp], #4
 266              		.cfi_restore 14
 267              		.cfi_def_cfa_offset 0
 268              		.loc 1 130 0
 269 001a FFF7FEBF 		b	chSysHalt
 270              	.LVL40:
 271              	.L21:
 272              		.cfi_restore_state
 273 001e FFF7FEFF 		bl	__stack_chk_fail
 274              	.LVL41:
 275              	.L23:
 276 0022 00BF     		.align	2
 277              	.L22:
 278 0024 00000000 		.word	__stack_chk_guard
 279 0028 00000000 		.word	.LC0
 280              		.cfi_endproc
 281              	.LFE260:
 282              		.size	__stack_chk_fail, .-__stack_chk_fail
 283              		.global	__stack_chk_guard
 284              		.global	bus_condvar
 285              		.global	bus_lock
ARM GAS  /tmp/cccTIW9E.s 			page 6


 286              		.global	bus
 287              		.section	.bss.bus,"aw",%nobits
 288              		.align	2
 289              		.set	.LANCHOR2,. + 0
 290              		.type	bus, %object
 291              		.size	bus, 12
 292              	bus:
 293 0000 00000000 		.space	12
 293      00000000 
 293      00000000 
 294              		.section	.data.__stack_chk_guard,"aw",%progbits
 295              		.align	2
 296              		.type	__stack_chk_guard, %object
 297              		.size	__stack_chk_guard, 4
 298              	__stack_chk_guard:
 299 0000 96E3DEE2 		.word	-488709226
 300              		.section	.data.bus_condvar,"aw",%progbits
 301              		.align	2
 302              		.set	.LANCHOR0,. + 0
 303              		.type	bus_condvar, %object
 304              		.size	bus_condvar, 8
 305              	bus_condvar:
 306 0000 00000000 		.word	bus_condvar
 307 0004 00000000 		.word	bus_condvar
 308              		.section	.data.bus_lock,"aw",%progbits
 309              		.align	2
 310              		.set	.LANCHOR1,. + 0
 311              		.type	bus_lock, %object
 312              		.size	bus_lock, 20
 313              	bus_lock:
 314 0000 00000000 		.word	bus_lock
 315 0004 00000000 		.word	bus_lock
 316 0008 00000000 		.word	0
 317 000c 00000000 		.word	0
 318 0010 00000000 		.word	0
 319              		.section	.rodata.__stack_chk_fail.str1.4,"aMS",%progbits,1
 320              		.align	2
 321              	.LC0:
 322 0000 53746163 		.ascii	"Stack smashing detected\000"
 322      6B20736D 
 322      61736869 
 322      6E672064 
 322      65746563 
 323              		.text
 324              	.Letext0:
 325              		.file 2 "/home/acse-lab/Documents/CN_29/Eclipse_e-puck2/Tools/gcc-arm-none-eabi-7-2017-q4-major/ar
 326              		.file 3 "/home/acse-lab/Documents/CN_29/Eclipse_e-puck2/Tools/gcc-arm-none-eabi-7-2017-q4-major/li
 327              		.file 4 "/home/acse-lab/Documents/CN_29/Eclipse_e-puck2/Tools/gcc-arm-none-eabi-7-2017-q4-major/ar
 328              		.file 5 "/home/acse-lab/Documents/CN_29/Eclipse_e-puck2/Tools/gcc-arm-none-eabi-7-2017-q4-major/ar
 329              		.file 6 "/home/acse-lab/Documents/CN_29/Eclipse_e-puck2/Tools/gcc-arm-none-eabi-7-2017-q4-major/ar
 330              		.file 7 "/home/acse-lab/Documents/CN_29/Eclipse_e-puck2/Tools/gcc-arm-none-eabi-7-2017-q4-major/ar
 331              		.file 8 "/home/acse-lab/Documents/CN_29/Eclipse_e-puck2/Tools/gcc-arm-none-eabi-7-2017-q4-major/ar
 332              		.file 9 "/home/acse-lab/Documents/CN_29/Eclipse_e-puck2/Tools/gcc-arm-none-eabi-7-2017-q4-major/ar
 333              		.file 10 "../e-puck2_main-processor/ChibiOS//os/rt/ports/ARMCMx/compilers/GCC/chtypes.h"
 334              		.file 11 "../e-puck2_main-processor/ChibiOS//os/rt/include/chsystypes.h"
 335              		.file 12 "../e-puck2_main-processor/ChibiOS//os/rt/include/chschd.h"
 336              		.file 13 "../e-puck2_main-processor/ChibiOS//os/ext/CMSIS/include/core_cm4.h"
ARM GAS  /tmp/cccTIW9E.s 			page 7


 337              		.file 14 "../e-puck2_main-processor/ChibiOS//os/ext/CMSIS/ST/system_stm32f4xx.h"
 338              		.file 15 "../e-puck2_main-processor/ChibiOS//os/ext/CMSIS/ST/stm32f407xx.h"
 339              		.file 16 "../e-puck2_main-processor/ChibiOS//os/rt/ports/ARMCMx/chcore.h"
 340              		.file 17 "../e-puck2_main-processor/ChibiOS//os/rt/ports/ARMCMx/chcore_v7m.h"
 341              		.file 18 "../e-puck2_main-processor/ChibiOS//os/rt/include/chdebug.h"
 342              		.file 19 "../e-puck2_main-processor/ChibiOS//os/rt/include/chtm.h"
 343              		.file 20 "../e-puck2_main-processor/ChibiOS//os/rt/include/chstats.h"
 344              		.file 21 "../e-puck2_main-processor/ChibiOS//os/rt/include/chsem.h"
 345              		.file 22 "../e-puck2_main-processor/ChibiOS//os/rt/include/chmtx.h"
 346              		.file 23 "../e-puck2_main-processor/ChibiOS//os/rt/include/chregistry.h"
 347              		.file 24 "../e-puck2_main-processor/ChibiOS//os/rt/include/chcond.h"
 348              		.file 25 "../e-puck2_main-processor/ChibiOS//os/rt/include/chevents.h"
 349              		.file 26 "../e-puck2_main-processor/ChibiOS//os/rt/include/chqueues.h"
 350              		.file 27 "../e-puck2_main-processor/ChibiOS//os/hal/ports/STM32/STM32F4xx/stm32_dma.h"
 351              		.file 28 "../e-puck2_main-processor/ChibiOS//os/hal/include/hal_ioblock.h"
 352              		.file 29 "../e-puck2_main-processor/ChibiOS//os/hal/ports/STM32/LLD/GPIOv2/pal_lld.h"
 353              		.file 30 "../e-puck2_main-processor/ChibiOS//os/hal/include/adc.h"
 354              		.file 31 "../e-puck2_main-processor/ChibiOS//os/hal/ports/STM32/STM32F4xx/adc_lld.h"
 355              		.file 32 "../e-puck2_main-processor/ChibiOS//os/hal/include/can.h"
 356              		.file 33 "../e-puck2_main-processor/ChibiOS//os/hal/ports/STM32/LLD/can_lld.h"
 357              		.file 34 "../e-puck2_main-processor/ChibiOS//os/hal/include/dac.h"
 358              		.file 35 "../e-puck2_main-processor/ChibiOS//os/hal/ports/STM32/LLD/DACv1/dac_lld.h"
 359              		.file 36 "../e-puck2_main-processor/ChibiOS//os/hal/include/ext.h"
 360              		.file 37 "../e-puck2_main-processor/ChibiOS//os/hal/ports/STM32/LLD/ext_lld.h"
 361              		.file 38 "../e-puck2_main-processor/ChibiOS//os/hal/include/gpt.h"
 362              		.file 39 "../e-puck2_main-processor/ChibiOS//os/hal/ports/STM32/LLD/TIMv1/gpt_lld.h"
 363              		.file 40 "../e-puck2_main-processor/ChibiOS//os/hal/ports/STM32/LLD/TIMv1/stm32_tim.h"
 364              		.file 41 "../e-puck2_main-processor/ChibiOS//os/hal/include/i2c.h"
 365              		.file 42 "../e-puck2_main-processor/ChibiOS//os/hal/ports/STM32/LLD/I2Cv1/i2c_lld.h"
 366              		.file 43 "../e-puck2_main-processor/ChibiOS//os/hal/include/i2s.h"
 367              		.file 44 "../e-puck2_main-processor/ChibiOS//os/hal/ports/STM32/LLD/SPIv1/i2s_lld.h"
 368              		.file 45 "../e-puck2_main-processor/ChibiOS//os/hal/include/pwm.h"
 369              		.file 46 "../e-puck2_main-processor/ChibiOS//os/hal/ports/STM32/LLD/TIMv1/pwm_lld.h"
 370              		.file 47 "../e-puck2_main-processor/ChibiOS//os/hal/include/serial.h"
 371              		.file 48 "../e-puck2_main-processor/ChibiOS//os/hal/ports/STM32/LLD/USARTv1/serial_lld.h"
 372              		.file 49 "../e-puck2_main-processor/ChibiOS//os/hal/include/sdc.h"
 373              		.file 50 "../e-puck2_main-processor/ChibiOS//os/hal/ports/STM32/LLD/sdc_lld.h"
 374              		.file 51 "../e-puck2_main-processor/ChibiOS//os/hal/include/spi.h"
 375              		.file 52 "../e-puck2_main-processor/ChibiOS//os/hal/ports/STM32/LLD/SPIv1/spi_lld.h"
 376              		.file 53 "../e-puck2_main-processor/ChibiOS//os/hal/include/usb.h"
 377              		.file 54 "../e-puck2_main-processor/ChibiOS//os/hal/ports/STM32/LLD/OTGv1/usb_lld.h"
 378              		.file 55 "../e-puck2_main-processor/ChibiOS//os/hal/ports/STM32/LLD/OTGv1/stm32_otg.h"
 379              		.file 56 "/home/acse-lab/Documents/CN_29/Eclipse_e-puck2/Tools/gcc-arm-none-eabi-7-2017-q4-major/a
 380              		.file 57 "../e-puck2_main-processor/src/msgbus/messagebus.h"
 381              		.file 58 "../e-puck2_main-processor/src/parameter/parameter.h"
 382              		.file 59 "./main.h"
 383              		.file 60 "../e-puck2_main-processor/src/leds.h"
 384              		.file 61 "../e-puck2_main-processor/src/motors.h"
 385              		.file 62 "../e-puck2_main-processor/ChibiOS//os/rt/include/chsys.h"
 386              		.file 63 "../e-puck2_main-processor/src/sensors/proximity.h"
 387              		.file 64 "../e-puck2_main-processor/ChibiOS//os/hal/include/hal.h"
 388              		.file 65 "../e-puck2_main-processor/src/memory_protection.h"
 389              		.file 66 "../e-puck2_main-processor/src/spi_comm.h"
 390              		.file 67 "../e-puck2_main-processor/src/serial_comm.h"
 391              		.file 68 "../e-puck2_main-processor/ChibiOS//os/rt/include/chthreads.h"